target datalayout = "e-m:e-p270:32:32-p271:32:32-p272:64:64-i64:64-i128:128-f80:128-n8:16:32:64-S128"
target triple = "x86_64-pc-linux-gnu"

%class.cmScriptGenerator = type <{ ptr, %"class.std::__cxx11::basic_string", %"class.std::vector", %"class.std::__cxx11::basic_string", ptr, i8, [7 x i8] }>
%"class.std::vector" = type { %"struct.std::_Vector_base" }
%"struct.std::_Vector_base" = type { %"struct.std::_Vector_base<std::__cxx11::basic_string<char>, std::allocator<std::__cxx11::basic_string<char>>>::_Vector_impl" }
%"struct.std::_Vector_base<std::__cxx11::basic_string<char>, std::allocator<std::__cxx11::basic_string<char>>>::_Vector_impl" = type { %"struct.std::_Vector_base<std::__cxx11::basic_string<char>, std::allocator<std::__cxx11::basic_string<char>>>::_Vector_impl_data" }
%"struct.std::_Vector_base<std::__cxx11::basic_string<char>, std::allocator<std::__cxx11::basic_string<char>>>::_Vector_impl_data" = type { ptr, ptr, ptr }
%"class.std::__cxx11::basic_string" = type { %"struct.std::__cxx11::basic_string<char>::_Alloc_hider", i64, %union.anon }
%"struct.std::__cxx11::basic_string<char>::_Alloc_hider" = type { ptr }
%union.anon = type { i64, [8 x i8] }
%class.cmScriptGeneratorIndent = type { i32 }

; Function Attrs: mustprogress uwtable
define dso_local void @_ZN17cmScriptGenerator21GenerateScriptConfigsERSo23cmScriptGeneratorIndent(ptr noundef nonnull align 8 dereferenceable(105) %0, ptr noundef nonnull align 8 dereferenceable(8) %1, i32 %2) unnamed_addr #6 align 2 {
  %4 = alloca %class.cmScriptGeneratorIndent, align 4
  %5 = alloca ptr, align 8
  %6 = alloca ptr, align 8
  %7 = alloca %class.cmScriptGeneratorIndent, align 4
  %8 = alloca %class.cmScriptGeneratorIndent, align 4
  %9 = getelementptr inbounds %class.cmScriptGeneratorIndent, ptr %4, i32 0, i32 0
  store i32 %2, ptr %9, align 4
  store ptr %0, ptr %5, align 8
  store ptr %1, ptr %6, align 8
  %10 = load ptr, ptr %5, align 8
  %11 = getelementptr inbounds %class.cmScriptGenerator, ptr %10, i32 0, i32 5
  %12 = load i8, ptr %11, align 8
  %13 = trunc i8 %12 to i1
  br i1 %13, label %14, label %18

14:                                               ; preds = %3
  %15 = load ptr, ptr %6, align 8
  call void @llvm.memcpy.p0.p0.i64(ptr align 4 %7, ptr align 4 %4, i64 4, i1 false)
  %16 = getelementptr inbounds %class.cmScriptGeneratorIndent, ptr %7, i32 0, i32 0
  %17 = load i32, ptr %16, align 4
  call void @_ZN17cmScriptGenerator30GenerateScriptActionsPerConfigERSo23cmScriptGeneratorIndent(ptr noundef nonnull align 8 dereferenceable(105) %10, ptr noundef nonnull align 8 dereferenceable(8) %15, i32 %17)
  br label %22

18:                                               ; preds = %3
  %19 = load ptr, ptr %6, align 8
  call void @llvm.memcpy.p0.p0.i64(ptr align 4 %8, ptr align 4 %4, i64 4, i1 false)
  %20 = getelementptr inbounds %class.cmScriptGeneratorIndent, ptr %8, i32 0, i32 0
  %21 = load i32, ptr %20, align 4
  call void @_ZN17cmScriptGenerator25GenerateScriptActionsOnceERSo23cmScriptGeneratorIndent(ptr noundef nonnull align 8 dereferenceable(105) %10, ptr noundef nonnull align 8 dereferenceable(8) %19, i32 %21)
  br label %22

22:                                               ; preds = %18, %14
  ret void
}